target datalayout = "e-m:e-p270:32:32-p271:32:32-p272:64:64-i64:64-i128:128-f80:128-n8:16:32:64-S128"
target triple = "x86_64-pc-linux-gnu"

; Function Attrs: nounwind uwtable
define void @av_tea_crypt(ptr noundef %0, ptr noundef %1, ptr noundef %2, i32 noundef %3, ptr noundef %4, i32 noundef %5) #0 {
  %7 = alloca ptr, align 8
  %8 = alloca ptr, align 8
  %9 = alloca ptr, align 8
  %10 = alloca i32, align 4
  %11 = alloca ptr, align 8
  %12 = alloca i32, align 4
  %13 = alloca i32, align 4
  store ptr %0, ptr %7, align 8, !tbaa !4
  store ptr %1, ptr %8, align 8, !tbaa !9
  store ptr %2, ptr %9, align 8, !tbaa !9
  store i32 %3, ptr %10, align 4, !tbaa !11
  store ptr %4, ptr %11, align 8, !tbaa !9
  store i32 %5, ptr %12, align 4, !tbaa !11
  call void @llvm.lifetime.start.p0(i64 4, ptr %13) #5
  %14 = load i32, ptr %12, align 4, !tbaa !11
  %15 = icmp ne i32 %14, 0
  br i1 %15, label %16, label %32

16:                                               ; preds = %6
  br label %17

17:                                               ; preds = %21, %16
  %18 = load i32, ptr %10, align 4, !tbaa !11
  %19 = add nsw i32 %18, -1
  store i32 %19, ptr %10, align 4, !tbaa !11
  %20 = icmp ne i32 %18, 0
  br i1 %20, label %21, label %31

21:                                               ; preds = %17
  %22 = load ptr, ptr %7, align 8, !tbaa !4
  %23 = load ptr, ptr %8, align 8, !tbaa !9
  %24 = load ptr, ptr %9, align 8, !tbaa !9
  %25 = load i32, ptr %12, align 4, !tbaa !11
  %26 = load ptr, ptr %11, align 8, !tbaa !9
  call void @tea_crypt_ecb(ptr noundef %22, ptr noundef %23, ptr noundef %24, i32 noundef %25, ptr noundef %26)
  %27 = load ptr, ptr %9, align 8, !tbaa !9
  %28 = getelementptr inbounds i8, ptr %27, i64 8
  store ptr %28, ptr %9, align 8, !tbaa !9
  %29 = load ptr, ptr %8, align 8, !tbaa !9
  %30 = getelementptr inbounds i8, ptr %29, i64 8
  store ptr %30, ptr %8, align 8, !tbaa !9
  br label %17, !llvm.loop !18

31:                                               ; preds = %17
  br label %84

32:                                               ; preds = %6
  br label %33

33:                                               ; preds = %78, %32
  %34 = load i32, ptr %10, align 4, !tbaa !11
  %35 = add nsw i32 %34, -1
  store i32 %35, ptr %10, align 4, !tbaa !11
  %36 = icmp ne i32 %34, 0
  br i1 %36, label %37, label %83

37:                                               ; preds = %33
  %38 = load ptr, ptr %11, align 8, !tbaa !9
  %39 = icmp ne ptr %38, null
  br i1 %39, label %40, label %73

40:                                               ; preds = %37
  store i32 0, ptr %13, align 4, !tbaa !11
  br label %41

41:                                               ; preds = %63, %40
  %42 = load i32, ptr %13, align 4, !tbaa !11
  %43 = icmp slt i32 %42, 8
  br i1 %43, label %44, label %66

44:                                               ; preds = %41
  %45 = load ptr, ptr %9, align 8, !tbaa !9
  %46 = load i32, ptr %13, align 4, !tbaa !11
  %47 = sext i32 %46 to i64
  %48 = getelementptr inbounds i8, ptr %45, i64 %47
  %49 = load i8, ptr %48, align 1, !tbaa !13
  %50 = zext i8 %49 to i32
  %51 = load ptr, ptr %11, align 8, !tbaa !9
  %52 = load i32, ptr %13, align 4, !tbaa !11
  %53 = sext i32 %52 to i64
  %54 = getelementptr inbounds i8, ptr %51, i64 %53
  %55 = load i8, ptr %54, align 1, !tbaa !13
  %56 = zext i8 %55 to i32
  %57 = xor i32 %50, %56
  %58 = trunc i32 %57 to i8
  %59 = load ptr, ptr %8, align 8, !tbaa !9
  %60 = load i32, ptr %13, align 4, !tbaa !11
  %61 = sext i32 %60 to i64
  %62 = getelementptr inbounds i8, ptr %59, i64 %61
  store i8 %58, ptr %62, align 1, !tbaa !13
  br label %63

63:                                               ; preds = %44
  %64 = load i32, ptr %13, align 4, !tbaa !11
  %65 = add nsw i32 %64, 1
  store i32 %65, ptr %13, align 4, !tbaa !11
  br label %41, !llvm.loop !19

66:                                               ; preds = %41
  %67 = load ptr, ptr %7, align 8, !tbaa !4
  %68 = load ptr, ptr %8, align 8, !tbaa !9
  %69 = load ptr, ptr %8, align 8, !tbaa !9
  %70 = load i32, ptr %12, align 4, !tbaa !11
  call void @tea_crypt_ecb(ptr noundef %67, ptr noundef %68, ptr noundef %69, i32 noundef %70, ptr noundef null)
  %71 = load ptr, ptr %11, align 8, !tbaa !9
  %72 = load ptr, ptr %8, align 8, !tbaa !9
  call void @llvm.memcpy.p0.p0.i64(ptr align 1 %71, ptr align 1 %72, i64 8, i1 false)
  br label %78

73:                                               ; preds = %37
  %74 = load ptr, ptr %7, align 8, !tbaa !4
  %75 = load ptr, ptr %8, align 8, !tbaa !9
  %76 = load ptr, ptr %9, align 8, !tbaa !9
  %77 = load i32, ptr %12, align 4, !tbaa !11
  call void @tea_crypt_ecb(ptr noundef %74, ptr noundef %75, ptr noundef %76, i32 noundef %77, ptr noundef null)
  br label %78

78:                                               ; preds = %73, %66
  %79 = load ptr, ptr %9, align 8, !tbaa !9
  %80 = getelementptr inbounds i8, ptr %79, i64 8
  store ptr %80, ptr %9, align 8, !tbaa !9
  %81 = load ptr, ptr %8, align 8, !tbaa !9
  %82 = getelementptr inbounds i8, ptr %81, i64 8
  store ptr %82, ptr %8, align 8, !tbaa !9
  br label %33, !llvm.loop !20

83:                                               ; preds = %33
  br label %84

84:                                               ; preds = %83, %31
  call void @llvm.lifetime.end.p0(i64 4, ptr %13) #5
  ret void
}