; Function Attrs: nofree norecurse nosync nounwind memory(argmem: readwrite) uwtable
define void @av_tea_crypt(ptr noundef readonly captures(none) %0, ptr noundef captures(none) %1, ptr noundef readonly captures(none) %2, i32 noundef %3, ptr noundef captures(address_is_null) %4, i32 noundef %5) local_unnamed_addr #2 {
  %.not = icmp eq i32 %5, 0
  %.not3671 = icmp eq i32 %3, 0
  br i1 %.not, label %.preheader60, label %.preheader61

.preheader61:                                     ; preds = %6
  br i1 %.not3671, label %.loopexit, label %.lr.ph

.preheader60:                                     ; preds = %6
  br i1 %.not3671, label %.loopexit, label %.lr.ph74

.lr.ph74:                                         ; preds = %.preheader60
  %7 = add nsw i32 %3, -1
  %.not37 = icmp eq ptr %4, null
  %8 = getelementptr inbounds nuw i8, ptr %0, i64 64
  %9 = getelementptr inbounds nuw i8, ptr %0, i64 4
  %10 = getelementptr inbounds nuw i8, ptr %0, i64 8
  %11 = getelementptr inbounds nuw i8, ptr %0, i64 12
  br i1 %.not37, label %.preheader.i52.us, label %.preheader

.preheader.i52.us:                                ; preds = %.lr.ph74, %tea_crypt_ecb.exit59.us
  %12 = phi i32 [ %48, %tea_crypt_ecb.exit59.us ], [ %7, %.lr.ph74 ]
  %.173.us = phi ptr [ %47, %tea_crypt_ecb.exit59.us ], [ %1, %.lr.ph74 ]
  %.13272.us = phi ptr [ %46, %tea_crypt_ecb.exit59.us ], [ %2, %.lr.ph74 ]
  %13 = load i32, ptr %8, align 4, !tbaa !11
  %14 = load i32, ptr %0, align 4, !tbaa !7
  %15 = load i32, ptr %9, align 4, !tbaa !7
  %16 = load i32, ptr %10, align 4, !tbaa !7
  %17 = load i32, ptr %11, align 4, !tbaa !7
  %18 = sdiv i32 %13, 2
  %19 = icmp sgt i32 %13, 1
  %20 = load i32, ptr %.13272.us, align 1, !tbaa !4
  %21 = tail call i32 @llvm.bswap.i32(i32 %20)
  %22 = getelementptr inbounds nuw i8, ptr %.13272.us, i64 4
  %23 = load i32, ptr %22, align 1, !tbaa !4
  %24 = tail call i32 @llvm.bswap.i32(i32 %23)
  br i1 %19, label %.lr.ph77.i53.us, label %tea_crypt_ecb.exit59.us

.lr.ph77.i53.us:                                  ; preds = %.preheader.i52.us, %.lr.ph77.i53.us
  %.376.i54.us = phi i32 [ %33, %.lr.ph77.i53.us ], [ %21, %.preheader.i52.us ]
  %.05875.i55.us = phi i32 [ %25, %.lr.ph77.i53.us ], [ 0, %.preheader.i52.us ]
  %.05974.i56.us = phi i32 [ %42, %.lr.ph77.i53.us ], [ 0, %.preheader.i52.us ]
  %.36473.i57.us = phi i32 [ %41, %.lr.ph77.i53.us ], [ %24, %.preheader.i52.us ]
  %25 = add i32 %.05875.i55.us, -1640531527
  %26 = shl i32 %.36473.i57.us, 4
  %27 = add i32 %26, %14
  %28 = add i32 %.36473.i57.us, %25
  %29 = lshr i32 %.36473.i57.us, 5
  %30 = add i32 %29, %15
  %31 = xor i32 %27, %28
  %32 = xor i32 %31, %30
  %33 = add i32 %32, %.376.i54.us
  %34 = shl i32 %33, 4
  %35 = add i32 %34, %16
  %36 = add i32 %33, %25
  %37 = xor i32 %35, %36
  %38 = lshr i32 %33, 5
  %39 = add i32 %38, %17
  %40 = xor i32 %37, %39
  %41 = add i32 %40, %.36473.i57.us
  %42 = add nuw nsw i32 %.05974.i56.us, 1
  %exitcond83.not.i58.us = icmp eq i32 %42, %18
  br i1 %exitcond83.not.i58.us, label %tea_crypt_ecb.exit59.us, label %.lr.ph77.i53.us, !llvm.loop !13

tea_crypt_ecb.exit59.us:                          ; preds = %.lr.ph77.i53.us, %.preheader.i52.us
  %.263.i43.us = phi i32 [ %24, %.preheader.i52.us ], [ %41, %.lr.ph77.i53.us ]
  %.2.i44.us = phi i32 [ %21, %.preheader.i52.us ], [ %33, %.lr.ph77.i53.us ]
  %43 = tail call i32 @llvm.bswap.i32(i32 %.2.i44.us)
  store i32 %43, ptr %.173.us, align 1, !tbaa !4
  %44 = tail call i32 @llvm.bswap.i32(i32 %.263.i43.us)
  %45 = getelementptr inbounds nuw i8, ptr %.173.us, i64 4
  store i32 %44, ptr %45, align 1, !tbaa !4
  %46 = getelementptr inbounds nuw i8, ptr %.13272.us, i64 8
  %47 = getelementptr inbounds nuw i8, ptr %.173.us, i64 8
  %48 = add nsw i32 %12, -1
  %.not36.us = icmp eq i32 %12, 0
  br i1 %.not36.us, label %.loopexit, label %.preheader.i52.us, !llvm.loop !14

.lr.ph:                                           ; preds = %.preheader61, %.lr.ph
  %.03069 = phi ptr [ %51, %.lr.ph ], [ %1, %.preheader61 ]
  %.03168 = phi ptr [ %50, %.lr.ph ], [ %2, %.preheader61 ]
  %.03367 = phi i32 [ %49, %.lr.ph ], [ %3, %.preheader61 ]
  %49 = add nsw i32 %.03367, -1
  tail call fastcc void @tea_crypt_ecb(ptr noundef %0, ptr noundef %.03069, ptr noundef %.03168, i32 noundef %5, ptr noundef %4)
  %50 = getelementptr inbounds nuw i8, ptr %.03168, i64 8
  %51 = getelementptr inbounds nuw i8, ptr %.03069, i64 8
  %.not38 = icmp eq i32 %49, 0
  br i1 %.not38, label %.loopexit, label %.lr.ph, !llvm.loop !15

.preheader:                                       ; preds = %.lr.ph74, %tea_crypt_ecb.exit
  %52 = phi i32 [ %95, %tea_crypt_ecb.exit ], [ %7, %.lr.ph74 ]
  %.173 = phi ptr [ %94, %tea_crypt_ecb.exit ], [ %1, %.lr.ph74 ]
  %.13272 = phi ptr [ %93, %tea_crypt_ecb.exit ], [ %2, %.lr.ph74 ]
  br label %53

53:                                               ; preds = %.preheader, %53
  %indvars.iv = phi i64 [ 0, %.preheader ], [ %indvars.iv.next, %53 ]
  %54 = getelementptr inbounds nuw i8, ptr %.13272, i64 %indvars.iv
  %55 = load i8, ptr %54, align 1, !tbaa !4
  %56 = getelementptr inbounds nuw i8, ptr %4, i64 %indvars.iv
  %57 = load i8, ptr %56, align 1, !tbaa !4
  %58 = xor i8 %57, %55
  %59 = getelementptr inbounds nuw i8, ptr %.173, i64 %indvars.iv
  store i8 %58, ptr %59, align 1, !tbaa !4
  %indvars.iv.next = add nuw nsw i64 %indvars.iv, 1
  %exitcond.not = icmp eq i64 %indvars.iv.next, 8
  br i1 %exitcond.not, label %.preheader.i, label %53, !llvm.loop !16

.preheader.i:                                     ; preds = %53
  %60 = load i32, ptr %8, align 4, !tbaa !11
  %61 = load i32, ptr %0, align 4, !tbaa !7
  %62 = load i32, ptr %9, align 4, !tbaa !7
  %63 = load i32, ptr %10, align 4, !tbaa !7
  %64 = load i32, ptr %11, align 4, !tbaa !7
  %65 = getelementptr inbounds nuw i8, ptr %.173, i64 4
  %66 = sdiv i32 %60, 2
  %67 = icmp sgt i32 %60, 1
  %68 = load i32, ptr %.173, align 1, !tbaa !4
  %69 = tail call i32 @llvm.bswap.i32(i32 %68)
  %70 = load i32, ptr %65, align 1, !tbaa !4
  %71 = tail call i32 @llvm.bswap.i32(i32 %70)
  br i1 %67, label %.lr.ph77.i, label %tea_crypt_ecb.exit

.lr.ph77.i:                                       ; preds = %.preheader.i, %.lr.ph77.i
  %.376.i = phi i32 [ %80, %.lr.ph77.i ], [ %69, %.preheader.i ]
  %.05875.i = phi i32 [ %72, %.lr.ph77.i ], [ 0, %.preheader.i ]
  %.05974.i = phi i32 [ %89, %.lr.ph77.i ], [ 0, %.preheader.i ]
  %.36473.i = phi i32 [ %88, %.lr.ph77.i ], [ %71, %.preheader.i ]
  %72 = add i32 %.05875.i, -1640531527
  %73 = shl i32 %.36473.i, 4
  %74 = add i32 %73, %61
  %75 = add i32 %.36473.i, %72
  %76 = lshr i32 %.36473.i, 5
  %77 = add i32 %76, %62
  %78 = xor i32 %74, %75
  %79 = xor i32 %78, %77
  %80 = add i32 %79, %.376.i
  %81 = shl i32 %80, 4
  %82 = add i32 %81, %63
  %83 = add i32 %80, %72
  %84 = xor i32 %82, %83
  %85 = lshr i32 %80, 5
  %86 = add i32 %85, %64
  %87 = xor i32 %84, %86
  %88 = add i32 %87, %.36473.i
  %89 = add nuw nsw i32 %.05974.i, 1
  %exitcond83.not.i = icmp eq i32 %89, %66
  br i1 %exitcond83.not.i, label %tea_crypt_ecb.exit, label %.lr.ph77.i, !llvm.loop !13

tea_crypt_ecb.exit:                               ; preds = %.lr.ph77.i, %.preheader.i
  %.263.i = phi i32 [ %71, %.preheader.i ], [ %88, %.lr.ph77.i ]
  %.2.i = phi i32 [ %69, %.preheader.i ], [ %80, %.lr.ph77.i ]
  %90 = tail call i32 @llvm.bswap.i32(i32 %.2.i)
  store i32 %90, ptr %.173, align 1, !tbaa !4
  %91 = tail call i32 @llvm.bswap.i32(i32 %.263.i)
  store i32 %91, ptr %65, align 1, !tbaa !4
  %92 = load i64, ptr %.173, align 1
  store i64 %92, ptr %4, align 1
  %93 = getelementptr inbounds nuw i8, ptr %.13272, i64 8
  %94 = getelementptr inbounds nuw i8, ptr %.173, i64 8
  %95 = add nsw i32 %52, -1
  %.not36 = icmp eq i32 %52, 0
  br i1 %.not36, label %.loopexit, label %.preheader, !llvm.loop !14

.loopexit:                                        ; preds = %.lr.ph, %tea_crypt_ecb.exit, %tea_crypt_ecb.exit59.us, %.preheader61, %.preheader60
  ret void
}